target datalayout = "e-m:e-p270:32:32-p271:32:32-p272:64:64-i64:64-i128:128-f80:128-n8:16:32:64-S128"
target triple = "x86_64-pc-linux-gnu"

%struct._MAD = type { i8, i8, i8, i8, i16, i8, i8, i64, i16, i16, i32 }

@hf_opa_reserved32 = internal global i32 0, align 4
@hf_opa_reserved24 = internal global i32 0, align 4
@hf_opa_reserved16 = internal global i32 0, align 4
@hf_opa_SwitchInfo = internal global i32 0, align 4
@hf_opa_SwitchInfo_LinearFDBCap = internal global i32 0, align 4
@hf_opa_SwitchInfo_MulticastFDBCap = internal global i32 0, align 4
@hf_opa_SwitchInfo_LinearFDBTop = internal global i32 0, align 4
@hf_opa_SwitchInfo_MulticastFDBTop = internal global i32 0, align 4
@hf_opa_SwitchInfo_CollectiveCap = internal global i32 0, align 4
@hf_opa_SwitchInfo_CollectiveTop = internal global i32 0, align 4
@hf_opa_SwitchInfo_IPAddrIPv6 = internal global i32 0, align 4
@hf_opa_SwitchInfo_IPAddrIPv4 = internal global i32 0, align 4
@hf_opa_SwitchInfo_LifeTimeValue = internal global i32 0, align 4
@hf_opa_SwitchInfo_PortStateChange = internal global i32 0, align 4
@hf_opa_SwitchInfo_reserved2 = internal global i32 0, align 4
@hf_opa_SwitchInfo_PartitionEnforcementCap = internal global i32 0, align 4
@hf_opa_SwitchInfo_PortGroupCap = internal global i32 0, align 4
@hf_opa_SwitchInfo_PortGroupTop = internal global i32 0, align 4
@hf_opa_SwitchInfo_SupportedRoutingMode = internal global i32 0, align 4
@hf_opa_SwitchInfo_EnabledRoutingMode = internal global i32 0, align 4
@hf_opa_SwitchInfo_reserved3 = internal global i32 0, align 4
@hf_opa_SwitchInfo_EnhancedPortZero = internal global i32 0, align 4
@hf_opa_SwitchInfo_reserved4 = internal global i32 0, align 4
@hf_opa_SwitchInfo_reserved5 = internal global i32 0, align 4
@hf_opa_SwitchInfo_CollectiveMask = internal global i32 0, align 4
@hf_opa_SwitchInfo_MulticastMask = internal global i32 0, align 4
@hf_opa_SwitchInfo_SwitchCapabilityMask = internal global i32 0, align 4
@hf_opa_SwitchInfo_CapabilityMaskCollectives = internal global i32 0, align 4
@ett_switchinfo = internal global i32 0, align 4
@ett_switchinfo_switchcapabilitymask = internal global i32 0, align 4

; Function Attrs: null_pointer_is_valid sspstrong uwtable
define internal i32 @parse_SwitchInfo(ptr noundef %0, ptr noundef %1, ptr noundef %2, ptr noundef %3) #0 {
  %5 = alloca i32, align 4
  %6 = alloca ptr, align 8
  %7 = alloca ptr, align 8
  %8 = alloca ptr, align 8
  %9 = alloca ptr, align 8
  %10 = alloca i32, align 4
  %11 = alloca ptr, align 8
  %12 = alloca ptr, align 8
  %13 = alloca i32, align 4
  store ptr %0, ptr %6, align 8
  store ptr %1, ptr %7, align 8
  store ptr %2, ptr %8, align 8
  store ptr %3, ptr %9, align 8
  call void @llvm.lifetime.start.p0(i64 4, ptr %10) #7
  %14 = load ptr, ptr %8, align 8
  %15 = load i32, ptr %14, align 4
  store i32 %15, ptr %10, align 4
  call void @llvm.lifetime.start.p0(i64 8, ptr %11) #7
  %16 = load ptr, ptr %6, align 8
  store ptr %16, ptr %11, align 8
  call void @llvm.lifetime.start.p0(i64 8, ptr %12) #7
  %17 = load ptr, ptr %6, align 8
  %18 = icmp ne ptr %17, null
  br i1 %18, label %19, label %31

19:                                               ; preds = %4
  %20 = load ptr, ptr %9, align 8
  %21 = getelementptr inbounds nuw %struct._MAD, ptr %20, i32 0, i32 3
  %22 = load i8, ptr %21, align 1
  %23 = zext i8 %22 to i32
  %24 = icmp eq i32 %23, 1
  br i1 %24, label %31, label %25

25:                                               ; preds = %19
  %26 = load ptr, ptr %9, align 8
  %27 = getelementptr inbounds nuw %struct._MAD, ptr %26, i32 0, i32 3
  %28 = load i8, ptr %27, align 1
  %29 = zext i8 %28 to i32
  %30 = icmp eq i32 %29, 18
  br i1 %30, label %31, label %34

31:                                               ; preds = %25, %19, %4
  %32 = load ptr, ptr %8, align 8
  %33 = load i32, ptr %32, align 4
  store i32 %33, ptr %5, align 4
  store i32 1, ptr %13, align 4
  br label %255

34:                                               ; preds = %25
  %35 = load ptr, ptr %11, align 8
  %36 = load i32, ptr @hf_opa_SwitchInfo, align 4
  %37 = load ptr, ptr %7, align 8
  %38 = load i32, ptr %10, align 4
  %39 = call ptr @proto_tree_add_item(ptr noundef %35, i32 noundef %36, ptr noundef %37, i32 noundef %38, i32 noundef 84, i32 noundef 0)
  store ptr %39, ptr %12, align 8
  %40 = load ptr, ptr %12, align 8
  %41 = load i32, ptr @ett_switchinfo, align 4
  %42 = call ptr @proto_item_add_subtree(ptr noundef %40, i32 noundef %41)
  store ptr %42, ptr %11, align 8
  %43 = load ptr, ptr %11, align 8
  %44 = load i32, ptr @hf_opa_SwitchInfo_LinearFDBCap, align 4
  %45 = load ptr, ptr %7, align 8
  %46 = load i32, ptr %10, align 4
  %47 = call ptr @proto_tree_add_item(ptr noundef %43, i32 noundef %44, ptr noundef %45, i32 noundef %46, i32 noundef 4, i32 noundef 0)
  %48 = load i32, ptr %10, align 4
  %49 = add i32 %48, 4
  store i32 %49, ptr %10, align 4
  %50 = load ptr, ptr %11, align 8
  %51 = load i32, ptr @hf_opa_reserved32, align 4
  %52 = load ptr, ptr %7, align 8
  %53 = load i32, ptr %10, align 4
  %54 = call ptr @proto_tree_add_item(ptr noundef %50, i32 noundef %51, ptr noundef %52, i32 noundef %53, i32 noundef 4, i32 noundef 0)
  %55 = load i32, ptr %10, align 4
  %56 = add i32 %55, 4
  store i32 %56, ptr %10, align 4
  %57 = load ptr, ptr %11, align 8
  %58 = load i32, ptr @hf_opa_SwitchInfo_MulticastFDBCap, align 4
  %59 = load ptr, ptr %7, align 8
  %60 = load i32, ptr %10, align 4
  %61 = call ptr @proto_tree_add_item(ptr noundef %57, i32 noundef %58, ptr noundef %59, i32 noundef %60, i32 noundef 4, i32 noundef 0)
  %62 = load i32, ptr %10, align 4
  %63 = add i32 %62, 4
  store i32 %63, ptr %10, align 4
  %64 = load ptr, ptr %11, align 8
  %65 = load i32, ptr @hf_opa_SwitchInfo_LinearFDBTop, align 4
  %66 = load ptr, ptr %7, align 8
  %67 = load i32, ptr %10, align 4
  %68 = call ptr @proto_tree_add_item(ptr noundef %64, i32 noundef %65, ptr noundef %66, i32 noundef %67, i32 noundef 4, i32 noundef 0)
  %69 = load i32, ptr %10, align 4
  %70 = add i32 %69, 4
  store i32 %70, ptr %10, align 4
  %71 = load ptr, ptr %11, align 8
  %72 = load i32, ptr @hf_opa_SwitchInfo_MulticastFDBTop, align 4
  %73 = load ptr, ptr %7, align 8
  %74 = load i32, ptr %10, align 4
  %75 = call ptr @proto_tree_add_item(ptr noundef %71, i32 noundef %72, ptr noundef %73, i32 noundef %74, i32 noundef 4, i32 noundef 0)
  %76 = load i32, ptr %10, align 4
  %77 = add i32 %76, 4
  store i32 %77, ptr %10, align 4
  %78 = load ptr, ptr %11, align 8
  %79 = load i32, ptr @hf_opa_SwitchInfo_CollectiveCap, align 4
  %80 = load ptr, ptr %7, align 8
  %81 = load i32, ptr %10, align 4
  %82 = call ptr @proto_tree_add_item(ptr noundef %78, i32 noundef %79, ptr noundef %80, i32 noundef %81, i32 noundef 4, i32 noundef 0)
  %83 = load i32, ptr %10, align 4
  %84 = add i32 %83, 4
  store i32 %84, ptr %10, align 4
  %85 = load ptr, ptr %11, align 8
  %86 = load i32, ptr @hf_opa_SwitchInfo_CollectiveTop, align 4
  %87 = load ptr, ptr %7, align 8
  %88 = load i32, ptr %10, align 4
  %89 = call ptr @proto_tree_add_item(ptr noundef %85, i32 noundef %86, ptr noundef %87, i32 noundef %88, i32 noundef 4, i32 noundef 0)
  %90 = load i32, ptr %10, align 4
  %91 = add i32 %90, 4
  store i32 %91, ptr %10, align 4
  %92 = load ptr, ptr %11, align 8
  %93 = load i32, ptr @hf_opa_reserved32, align 4
  %94 = load ptr, ptr %7, align 8
  %95 = load i32, ptr %10, align 4
  %96 = call ptr @proto_tree_add_item(ptr noundef %92, i32 noundef %93, ptr noundef %94, i32 noundef %95, i32 noundef 4, i32 noundef 0)
  %97 = load i32, ptr %10, align 4
  %98 = add i32 %97, 4
  store i32 %98, ptr %10, align 4
  %99 = load ptr, ptr %11, align 8
  %100 = load i32, ptr @hf_opa_SwitchInfo_IPAddrIPv6, align 4
  %101 = load ptr, ptr %7, align 8
  %102 = load i32, ptr %10, align 4
  %103 = call ptr @proto_tree_add_item(ptr noundef %99, i32 noundef %100, ptr noundef %101, i32 noundef %102, i32 noundef 16, i32 noundef 0)
  %104 = load i32, ptr %10, align 4
  %105 = add i32 %104, 16
  store i32 %105, ptr %10, align 4
  %106 = load ptr, ptr %11, align 8
  %107 = load i32, ptr @hf_opa_SwitchInfo_IPAddrIPv4, align 4
  %108 = load ptr, ptr %7, align 8
  %109 = load i32, ptr %10, align 4
  %110 = call ptr @proto_tree_add_item(ptr noundef %106, i32 noundef %107, ptr noundef %108, i32 noundef %109, i32 noundef 4, i32 noundef 0)
  %111 = load i32, ptr %10, align 4
  %112 = add i32 %111, 4
  store i32 %112, ptr %10, align 4
  %113 = load ptr, ptr %11, align 8
  %114 = load i32, ptr @hf_opa_reserved32, align 4
  %115 = load ptr, ptr %7, align 8
  %116 = load i32, ptr %10, align 4
  %117 = call ptr @proto_tree_add_item(ptr noundef %113, i32 noundef %114, ptr noundef %115, i32 noundef %116, i32 noundef 4, i32 noundef 0)
  %118 = load i32, ptr %10, align 4
  %119 = add i32 %118, 4
  store i32 %119, ptr %10, align 4
  %120 = load ptr, ptr %11, align 8
  %121 = load i32, ptr @hf_opa_reserved32, align 4
  %122 = load ptr, ptr %7, align 8
  %123 = load i32, ptr %10, align 4
  %124 = call ptr @proto_tree_add_item(ptr noundef %120, i32 noundef %121, ptr noundef %122, i32 noundef %123, i32 noundef 4, i32 noundef 0)
  %125 = load i32, ptr %10, align 4
  %126 = add i32 %125, 4
  store i32 %126, ptr %10, align 4
  %127 = load ptr, ptr %11, align 8
  %128 = load i32, ptr @hf_opa_reserved32, align 4
  %129 = load ptr, ptr %7, align 8
  %130 = load i32, ptr %10, align 4
  %131 = call ptr @proto_tree_add_item(ptr noundef %127, i32 noundef %128, ptr noundef %129, i32 noundef %130, i32 noundef 4, i32 noundef 0)
  %132 = load i32, ptr %10, align 4
  %133 = add i32 %132, 4
  store i32 %133, ptr %10, align 4
  %134 = load ptr, ptr %11, align 8
  %135 = load i32, ptr @hf_opa_reserved24, align 4
  %136 = load ptr, ptr %7, align 8
  %137 = load i32, ptr %10, align 4
  %138 = call ptr @proto_tree_add_item(ptr noundef %134, i32 noundef %135, ptr noundef %136, i32 noundef %137, i32 noundef 3, i32 noundef 0)
  %139 = load i32, ptr %10, align 4
  %140 = add i32 %139, 3
  store i32 %140, ptr %10, align 4
  %141 = load ptr, ptr %11, align 8
  %142 = load i32, ptr @hf_opa_SwitchInfo_LifeTimeValue, align 4
  %143 = load ptr, ptr %7, align 8
  %144 = load i32, ptr %10, align 4
  %145 = call ptr @proto_tree_add_item(ptr noundef %141, i32 noundef %142, ptr noundef %143, i32 noundef %144, i32 noundef 1, i32 noundef 0)
  %146 = load ptr, ptr %11, align 8
  %147 = load i32, ptr @hf_opa_SwitchInfo_PortStateChange, align 4
  %148 = load ptr, ptr %7, align 8
  %149 = load i32, ptr %10, align 4
  %150 = call ptr @proto_tree_add_item(ptr noundef %146, i32 noundef %147, ptr noundef %148, i32 noundef %149, i32 noundef 1, i32 noundef 0)
  %151 = load ptr, ptr %11, align 8
  %152 = load i32, ptr @hf_opa_SwitchInfo_reserved2, align 4
  %153 = load ptr, ptr %7, align 8
  %154 = load i32, ptr %10, align 4
  %155 = call ptr @proto_tree_add_item(ptr noundef %151, i32 noundef %152, ptr noundef %153, i32 noundef %154, i32 noundef 1, i32 noundef 0)
  %156 = load i32, ptr %10, align 4
  %157 = add i32 %156, 1
  store i32 %157, ptr %10, align 4
  %158 = load ptr, ptr %11, align 8
  %159 = load i32, ptr @hf_opa_reserved16, align 4
  %160 = load ptr, ptr %7, align 8
  %161 = load i32, ptr %10, align 4
  %162 = call ptr @proto_tree_add_item(ptr noundef %158, i32 noundef %159, ptr noundef %160, i32 noundef %161, i32 noundef 2, i32 noundef 0)
  %163 = load i32, ptr %10, align 4
  %164 = add i32 %163, 2
  store i32 %164, ptr %10, align 4
  %165 = load ptr, ptr %11, align 8
  %166 = load i32, ptr @hf_opa_SwitchInfo_PartitionEnforcementCap, align 4
  %167 = load ptr, ptr %7, align 8
  %168 = load i32, ptr %10, align 4
  %169 = call ptr @proto_tree_add_item(ptr noundef %165, i32 noundef %166, ptr noundef %167, i32 noundef %168, i32 noundef 2, i32 noundef 0)
  %170 = load i32, ptr %10, align 4
  %171 = add i32 %170, 2
  store i32 %171, ptr %10, align 4
  %172 = load ptr, ptr %11, align 8
  %173 = load i32, ptr @hf_opa_SwitchInfo_PortGroupCap, align 4
  %174 = load ptr, ptr %7, align 8
  %175 = load i32, ptr %10, align 4
  %176 = call ptr @proto_tree_add_item(ptr noundef %172, i32 noundef %173, ptr noundef %174, i32 noundef %175, i32 noundef 1, i32 noundef 0)
  %177 = load i32, ptr %10, align 4
  %178 = add i32 %177, 1
  store i32 %178, ptr %10, align 4
  %179 = load ptr, ptr %11, align 8
  %180 = load i32, ptr @hf_opa_SwitchInfo_PortGroupTop, align 4
  %181 = load ptr, ptr %7, align 8
  %182 = load i32, ptr %10, align 4
  %183 = call ptr @proto_tree_add_item(ptr noundef %179, i32 noundef %180, ptr noundef %181, i32 noundef %182, i32 noundef 1, i32 noundef 0)
  %184 = load i32, ptr %10, align 4
  %185 = add i32 %184, 1
  store i32 %185, ptr %10, align 4
  %186 = load ptr, ptr %11, align 8
  %187 = load i32, ptr @hf_opa_SwitchInfo_SupportedRoutingMode, align 4
  %188 = load ptr, ptr %7, align 8
  %189 = load i32, ptr %10, align 4
  %190 = call ptr @proto_tree_add_item(ptr noundef %186, i32 noundef %187, ptr noundef %188, i32 noundef %189, i32 noundef 1, i32 noundef 0)
  %191 = load i32, ptr %10, align 4
  %192 = add i32 %191, 1
  store i32 %192, ptr %10, align 4
  %193 = load ptr, ptr %11, align 8
  %194 = load i32, ptr @hf_opa_SwitchInfo_EnabledRoutingMode, align 4
  %195 = load ptr, ptr %7, align 8
  %196 = load i32, ptr %10, align 4
  %197 = call ptr @proto_tree_add_item(ptr noundef %193, i32 noundef %194, ptr noundef %195, i32 noundef %196, i32 noundef 1, i32 noundef 0)
  %198 = load i32, ptr %10, align 4
  %199 = add i32 %198, 1
  store i32 %199, ptr %10, align 4
  %200 = load ptr, ptr %11, align 8
  %201 = load i32, ptr @hf_opa_SwitchInfo_reserved3, align 4
  %202 = load ptr, ptr %7, align 8
  %203 = load i32, ptr %10, align 4
  %204 = call ptr @proto_tree_add_item(ptr noundef %200, i32 noundef %201, ptr noundef %202, i32 noundef %203, i32 noundef 1, i32 noundef 0)
  %205 = load ptr, ptr %11, align 8
  %206 = load i32, ptr @hf_opa_SwitchInfo_EnhancedPortZero, align 4
  %207 = load ptr, ptr %7, align 8
  %208 = load i32, ptr %10, align 4
  %209 = call ptr @proto_tree_add_item(ptr noundef %205, i32 noundef %206, ptr noundef %207, i32 noundef %208, i32 noundef 1, i32 noundef 0)
  %210 = load ptr, ptr %11, align 8
  %211 = load i32, ptr @hf_opa_SwitchInfo_reserved4, align 4
  %212 = load ptr, ptr %7, align 8
  %213 = load i32, ptr %10, align 4
  %214 = call ptr @proto_tree_add_item(ptr noundef %210, i32 noundef %211, ptr noundef %212, i32 noundef %213, i32 noundef 1, i32 noundef 0)
  %215 = load i32, ptr %10, align 4
  %216 = add i32 %215, 1
  store i32 %216, ptr %10, align 4
  %217 = load ptr, ptr %11, align 8
  %218 = load i32, ptr @hf_opa_SwitchInfo_reserved5, align 4
  %219 = load ptr, ptr %7, align 8
  %220 = load i32, ptr %10, align 4
  %221 = call ptr @proto_tree_add_item(ptr noundef %217, i32 noundef %218, ptr noundef %219, i32 noundef %220, i32 noundef 1, i32 noundef 0)
  %222 = load ptr, ptr %11, align 8
  %223 = load i32, ptr @hf_opa_SwitchInfo_CollectiveMask, align 4
  %224 = load ptr, ptr %7, align 8
  %225 = load i32, ptr %10, align 4
  %226 = call ptr @proto_tree_add_item(ptr noundef %222, i32 noundef %223, ptr noundef %224, i32 noundef %225, i32 noundef 1, i32 noundef 0)
  %227 = load ptr, ptr %11, align 8
  %228 = load i32, ptr @hf_opa_SwitchInfo_MulticastMask, align 4
  %229 = load ptr, ptr %7, align 8
  %230 = load i32, ptr %10, align 4
  %231 = call ptr @proto_tree_add_item(ptr noundef %227, i32 noundef %228, ptr noundef %229, i32 noundef %230, i32 noundef 1, i32 noundef 0)
  %232 = load i32, ptr %10, align 4
  %233 = add i32 %232, 1
  store i32 %233, ptr %10, align 4
  %234 = load ptr, ptr %11, align 8
  %235 = load ptr, ptr %7, align 8
  %236 = load i32, ptr %10, align 4
  call void @proto_tree_add_bitmask_list(ptr noundef %234, ptr noundef %235, i32 noundef %236, i32 noundef 2, ptr noundef @_SwitchInfo_AdaptiveRouting, i32 noundef 0)
  %237 = load i32, ptr %10, align 4
  %238 = add i32 %237, 2
  store i32 %238, ptr %10, align 4
  %239 = load ptr, ptr %11, align 8
  %240 = load ptr, ptr %7, align 8
  %241 = load i32, ptr %10, align 4
  %242 = load i32, ptr @hf_opa_SwitchInfo_SwitchCapabilityMask, align 4
  %243 = load i32, ptr @ett_switchinfo_switchcapabilitymask, align 4
  %244 = call ptr @proto_tree_add_bitmask(ptr noundef %239, ptr noundef %240, i32 noundef %241, i32 noundef %242, i32 noundef %243, ptr noundef @_SwitchInfo_SwitchCapabilityMask, i32 noundef 0)
  %245 = load i32, ptr %10, align 4
  %246 = add i32 %245, 2
  store i32 %246, ptr %10, align 4
  %247 = load ptr, ptr %11, align 8
  %248 = load i32, ptr @hf_opa_SwitchInfo_CapabilityMaskCollectives, align 4
  %249 = load ptr, ptr %7, align 8
  %250 = load i32, ptr %10, align 4
  %251 = call ptr @proto_tree_add_item(ptr noundef %247, i32 noundef %248, ptr noundef %249, i32 noundef %250, i32 noundef 2, i32 noundef 0)
  %252 = load i32, ptr %10, align 4
  %253 = add i32 %252, 2
  store i32 %253, ptr %10, align 4
  %254 = load i32, ptr %10, align 4
  store i32 %254, ptr %5, align 4
  store i32 1, ptr %13, align 4
  br label %255

255:                                              ; preds = %34, %31
  call void @llvm.lifetime.end.p0(i64 8, ptr %12) #7
  call void @llvm.lifetime.end.p0(i64 8, ptr %11) #7
  call void @llvm.lifetime.end.p0(i64 4, ptr %10) #7
  %256 = load i32, ptr %5, align 4
  ret i32 %256
}