; Function Attrs: null_pointer_is_valid sspstrong uwtable
define internal fastcc i32 @parse_SwitchInfo(ptr noundef %0, ptr noundef %1, i32 %.0.val, ptr noundef readonly captures(none) %2) unnamed_addr #0 {
  %.not = icmp eq ptr %0, null
  br i1 %.not, label %101, label %4

4:                                                ; preds = %3
  %5 = getelementptr inbounds nuw i8, ptr %2, i64 3
  %6 = load i8, ptr %5, align 1
  switch i8 %6, label %7 [
    i8 1, label %101
    i8 18, label %101
  ]

7:                                                ; preds = %4
  %8 = load i32, ptr @hf_opa_SwitchInfo, align 4
  %9 = tail call ptr @proto_tree_add_item(ptr noundef nonnull %0, i32 noundef %8, ptr noundef %1, i32 noundef %.0.val, i32 noundef 84, i32 noundef 0)
  %10 = load i32, ptr @ett_switchinfo, align 4
  %11 = tail call ptr @proto_item_add_subtree(ptr noundef %9, i32 noundef %10)
  %12 = load i32, ptr @hf_opa_SwitchInfo_LinearFDBCap, align 4
  %13 = tail call ptr @proto_tree_add_item(ptr noundef %11, i32 noundef %12, ptr noundef %1, i32 noundef %.0.val, i32 noundef 4, i32 noundef 0)
  %14 = add i32 %.0.val, 4
  %15 = load i32, ptr @hf_opa_reserved32, align 4
  %16 = tail call ptr @proto_tree_add_item(ptr noundef %11, i32 noundef %15, ptr noundef %1, i32 noundef %14, i32 noundef 4, i32 noundef 0)
  %17 = add i32 %.0.val, 8
  %18 = load i32, ptr @hf_opa_SwitchInfo_MulticastFDBCap, align 4
  %19 = tail call ptr @proto_tree_add_item(ptr noundef %11, i32 noundef %18, ptr noundef %1, i32 noundef %17, i32 noundef 4, i32 noundef 0)
  %20 = add i32 %.0.val, 12
  %21 = load i32, ptr @hf_opa_SwitchInfo_LinearFDBTop, align 4
  %22 = tail call ptr @proto_tree_add_item(ptr noundef %11, i32 noundef %21, ptr noundef %1, i32 noundef %20, i32 noundef 4, i32 noundef 0)
  %23 = add i32 %.0.val, 16
  %24 = load i32, ptr @hf_opa_SwitchInfo_MulticastFDBTop, align 4
  %25 = tail call ptr @proto_tree_add_item(ptr noundef %11, i32 noundef %24, ptr noundef %1, i32 noundef %23, i32 noundef 4, i32 noundef 0)
  %26 = add i32 %.0.val, 20
  %27 = load i32, ptr @hf_opa_SwitchInfo_CollectiveCap, align 4
  %28 = tail call ptr @proto_tree_add_item(ptr noundef %11, i32 noundef %27, ptr noundef %1, i32 noundef %26, i32 noundef 4, i32 noundef 0)
  %29 = add i32 %.0.val, 24
  %30 = load i32, ptr @hf_opa_SwitchInfo_CollectiveTop, align 4
  %31 = tail call ptr @proto_tree_add_item(ptr noundef %11, i32 noundef %30, ptr noundef %1, i32 noundef %29, i32 noundef 4, i32 noundef 0)
  %32 = add i32 %.0.val, 28
  %33 = load i32, ptr @hf_opa_reserved32, align 4
  %34 = tail call ptr @proto_tree_add_item(ptr noundef %11, i32 noundef %33, ptr noundef %1, i32 noundef %32, i32 noundef 4, i32 noundef 0)
  %35 = add i32 %.0.val, 32
  %36 = load i32, ptr @hf_opa_SwitchInfo_IPAddrIPv6, align 4
  %37 = tail call ptr @proto_tree_add_item(ptr noundef %11, i32 noundef %36, ptr noundef %1, i32 noundef %35, i32 noundef 16, i32 noundef 0)
  %38 = add i32 %.0.val, 48
  %39 = load i32, ptr @hf_opa_SwitchInfo_IPAddrIPv4, align 4
  %40 = tail call ptr @proto_tree_add_item(ptr noundef %11, i32 noundef %39, ptr noundef %1, i32 noundef %38, i32 noundef 4, i32 noundef 0)
  %41 = add i32 %.0.val, 52
  %42 = load i32, ptr @hf_opa_reserved32, align 4
  %43 = tail call ptr @proto_tree_add_item(ptr noundef %11, i32 noundef %42, ptr noundef %1, i32 noundef %41, i32 noundef 4, i32 noundef 0)
  %44 = add i32 %.0.val, 56
  %45 = load i32, ptr @hf_opa_reserved32, align 4
  %46 = tail call ptr @proto_tree_add_item(ptr noundef %11, i32 noundef %45, ptr noundef %1, i32 noundef %44, i32 noundef 4, i32 noundef 0)
  %47 = add i32 %.0.val, 60
  %48 = load i32, ptr @hf_opa_reserved32, align 4
  %49 = tail call ptr @proto_tree_add_item(ptr noundef %11, i32 noundef %48, ptr noundef %1, i32 noundef %47, i32 noundef 4, i32 noundef 0)
  %50 = add i32 %.0.val, 64
  %51 = load i32, ptr @hf_opa_reserved24, align 4
  %52 = tail call ptr @proto_tree_add_item(ptr noundef %11, i32 noundef %51, ptr noundef %1, i32 noundef %50, i32 noundef 3, i32 noundef 0)
  %53 = add i32 %.0.val, 67
  %54 = load i32, ptr @hf_opa_SwitchInfo_LifeTimeValue, align 4
  %55 = tail call ptr @proto_tree_add_item(ptr noundef %11, i32 noundef %54, ptr noundef %1, i32 noundef %53, i32 noundef 1, i32 noundef 0)
  %56 = load i32, ptr @hf_opa_SwitchInfo_PortStateChange, align 4
  %57 = tail call ptr @proto_tree_add_item(ptr noundef %11, i32 noundef %56, ptr noundef %1, i32 noundef %53, i32 noundef 1, i32 noundef 0)
  %58 = load i32, ptr @hf_opa_SwitchInfo_reserved2, align 4
  %59 = tail call ptr @proto_tree_add_item(ptr noundef %11, i32 noundef %58, ptr noundef %1, i32 noundef %53, i32 noundef 1, i32 noundef 0)
  %60 = add i32 %.0.val, 68
  %61 = load i32, ptr @hf_opa_reserved16, align 4
  %62 = tail call ptr @proto_tree_add_item(ptr noundef %11, i32 noundef %61, ptr noundef %1, i32 noundef %60, i32 noundef 2, i32 noundef 0)
  %63 = add i32 %.0.val, 70
  %64 = load i32, ptr @hf_opa_SwitchInfo_PartitionEnforcementCap, align 4
  %65 = tail call ptr @proto_tree_add_item(ptr noundef %11, i32 noundef %64, ptr noundef %1, i32 noundef %63, i32 noundef 2, i32 noundef 0)
  %66 = add i32 %.0.val, 72
  %67 = load i32, ptr @hf_opa_SwitchInfo_PortGroupCap, align 4
  %68 = tail call ptr @proto_tree_add_item(ptr noundef %11, i32 noundef %67, ptr noundef %1, i32 noundef %66, i32 noundef 1, i32 noundef 0)
  %69 = add i32 %.0.val, 73
  %70 = load i32, ptr @hf_opa_SwitchInfo_PortGroupTop, align 4
  %71 = tail call ptr @proto_tree_add_item(ptr noundef %11, i32 noundef %70, ptr noundef %1, i32 noundef %69, i32 noundef 1, i32 noundef 0)
  %72 = add i32 %.0.val, 74
  %73 = load i32, ptr @hf_opa_SwitchInfo_SupportedRoutingMode, align 4
  %74 = tail call ptr @proto_tree_add_item(ptr noundef %11, i32 noundef %73, ptr noundef %1, i32 noundef %72, i32 noundef 1, i32 noundef 0)
  %75 = add i32 %.0.val, 75
  %76 = load i32, ptr @hf_opa_SwitchInfo_EnabledRoutingMode, align 4
  %77 = tail call ptr @proto_tree_add_item(ptr noundef %11, i32 noundef %76, ptr noundef %1, i32 noundef %75, i32 noundef 1, i32 noundef 0)
  %78 = add i32 %.0.val, 76
  %79 = load i32, ptr @hf_opa_SwitchInfo_reserved3, align 4
  %80 = tail call ptr @proto_tree_add_item(ptr noundef %11, i32 noundef %79, ptr noundef %1, i32 noundef %78, i32 noundef 1, i32 noundef 0)
  %81 = load i32, ptr @hf_opa_SwitchInfo_EnhancedPortZero, align 4
  %82 = tail call ptr @proto_tree_add_item(ptr noundef %11, i32 noundef %81, ptr noundef %1, i32 noundef %78, i32 noundef 1, i32 noundef 0)
  %83 = load i32, ptr @hf_opa_SwitchInfo_reserved4, align 4
  %84 = tail call ptr @proto_tree_add_item(ptr noundef %11, i32 noundef %83, ptr noundef %1, i32 noundef %78, i32 noundef 1, i32 noundef 0)
  %85 = add i32 %.0.val, 77
  %86 = load i32, ptr @hf_opa_SwitchInfo_reserved5, align 4
  %87 = tail call ptr @proto_tree_add_item(ptr noundef %11, i32 noundef %86, ptr noundef %1, i32 noundef %85, i32 noundef 1, i32 noundef 0)
  %88 = load i32, ptr @hf_opa_SwitchInfo_CollectiveMask, align 4
  %89 = tail call ptr @proto_tree_add_item(ptr noundef %11, i32 noundef %88, ptr noundef %1, i32 noundef %85, i32 noundef 1, i32 noundef 0)
  %90 = load i32, ptr @hf_opa_SwitchInfo_MulticastMask, align 4
  %91 = tail call ptr @proto_tree_add_item(ptr noundef %11, i32 noundef %90, ptr noundef %1, i32 noundef %85, i32 noundef 1, i32 noundef 0)
  %92 = add i32 %.0.val, 78
  tail call void @proto_tree_add_bitmask_list(ptr noundef %11, ptr noundef %1, i32 noundef %92, i32 noundef 2, ptr noundef nonnull @_SwitchInfo_AdaptiveRouting, i32 noundef 0)
  %93 = add i32 %.0.val, 80
  %94 = load i32, ptr @hf_opa_SwitchInfo_SwitchCapabilityMask, align 4
  %95 = load i32, ptr @ett_switchinfo_switchcapabilitymask, align 4
  %96 = tail call ptr @proto_tree_add_bitmask(ptr noundef %11, ptr noundef %1, i32 noundef %93, i32 noundef %94, i32 noundef %95, ptr noundef nonnull @_SwitchInfo_SwitchCapabilityMask, i32 noundef 0)
  %97 = add i32 %.0.val, 82
  %98 = load i32, ptr @hf_opa_SwitchInfo_CapabilityMaskCollectives, align 4
  %99 = tail call ptr @proto_tree_add_item(ptr noundef %11, i32 noundef %98, ptr noundef %1, i32 noundef %97, i32 noundef 2, i32 noundef 0)
  %100 = add i32 %.0.val, 84
  br label %101

101:                                              ; preds = %3, %4, %4, %7
  %.0 = phi i32 [ %100, %7 ], [ %.0.val, %4 ], [ %.0.val, %4 ], [ %.0.val, %3 ]
  ret i32 %.0
}